; Function Attrs: mustprogress uwtable
define hidden void @_ZN2bv6solver7eval_bvEPN3euf5enodeE(ptr dead_on_unwind noalias writable writeonly sret(%class.obj_ref) align 8 captures(none) %0, ptr noundef nonnull align 8 dereferenceable(640) %1, ptr noundef readonly captures(none) %2) local_unnamed_addr #3 align 2 personality ptr @__gxx_personality_v0 {
  %4 = alloca %class.rational, align 8
  call void @llvm.lifetime.start.p0(i64 32, ptr nonnull %4) #20
  store i32 0, ptr %4, align 8, !tbaa !186
  %5 = getelementptr inbounds nuw i8, ptr %4, i64 4
  store i8 0, ptr %5, align 4
  %6 = getelementptr inbounds nuw i8, ptr %4, i64 8
  store ptr null, ptr %6, align 8, !tbaa !189
  %7 = getelementptr inbounds nuw i8, ptr %4, i64 16
  store i32 1, ptr %7, align 8, !tbaa !186
  %8 = getelementptr inbounds nuw i8, ptr %4, i64 20
  store i8 0, ptr %8, align 4
  %9 = getelementptr inbounds nuw i8, ptr %4, i64 24
  store ptr null, ptr %9, align 8, !tbaa !189
  %10 = getelementptr inbounds nuw i8, ptr %1, i64 12
  %11 = load i32, ptr %10, align 4, !tbaa !190
  %12 = getelementptr inbounds nuw i8, ptr %2, i64 88
  %13 = load i32, ptr %12, align 8
  %14 = icmp ugt i32 %13, -257
  br i1 %14, label %_ZNK3euf5enode10get_th_varEi.exit, label %.preheader.i.i

.preheader.i.i:                                   ; preds = %3, %21
  %.0.i.i = phi ptr [ %23, %21 ], [ %12, %3 ]
  %15 = load i32, ptr %.0.i.i, align 8
  %16 = shl i32 %15, 24
  %17 = ashr exact i32 %16, 24
  %18 = icmp eq i32 %11, %17
  br i1 %18, label %19, label %21

19:                                               ; preds = %.preheader.i.i
  %20 = ashr i32 %15, 8
  br label %_ZNK3euf5enode10get_th_varEi.exit

21:                                               ; preds = %.preheader.i.i
  %22 = getelementptr inbounds nuw i8, ptr %.0.i.i, i64 8
  %23 = load ptr, ptr %22, align 8, !tbaa !191
  %.not.i.i = icmp eq ptr %23, null
  br i1 %.not.i.i, label %_ZNK3euf5enode10get_th_varEi.exit, label %.preheader.i.i, !llvm.loop !192

_ZNK3euf5enode10get_th_varEi.exit:                ; preds = %21, %19, %3
  %.06.i.i = phi i32 [ -1, %3 ], [ %20, %19 ], [ -1, %21 ]
  %24 = invoke noundef zeroext i1 @_ZNK2bv6solver15get_fixed_valueEiR8rational(ptr noundef nonnull align 8 dereferenceable(640) %1, i32 noundef %.06.i.i, ptr noundef nonnull align 8 dereferenceable(32) %4)
          to label %25 unwind label %28

25:                                               ; preds = %_ZNK3euf5enode10get_th_varEi.exit
  br i1 %24, label %30, label %26

26:                                               ; preds = %25
  invoke void @_Z26notify_assertion_violationPKciS0_(ptr noundef nonnull @.str, i32 noundef 71, ptr noundef nonnull @.str.1)
          to label %27 unwind label %28

27:                                               ; preds = %26
  invoke void @_Z18invoke_exit_actionj(i32 noundef 114)
          to label %30 unwind label %28

28:                                               ; preds = %32, %30, %27, %26, %_ZNK3euf5enode10get_th_varEi.exit
  %29 = landingpad { ptr, i32 }
          cleanup
  call void @_ZN8rationalD2Ev(ptr noundef nonnull align 8 dereferenceable(32) %4) #20
  call void @llvm.lifetime.end.p0(i64 32, ptr nonnull %4) #20
  resume { ptr, i32 } %29

30:                                               ; preds = %27, %25
  %31 = invoke noundef i32 @_ZN2bv6solver11get_bv_sizeEi(ptr noundef nonnull align 8 dereferenceable(640) %1, i32 noundef %.06.i.i)
          to label %32 unwind label %28

32:                                               ; preds = %30
  %33 = getelementptr inbounds nuw i8, ptr %1, i64 128
  %34 = invoke noundef ptr @_ZNK7bv_util10mk_numeralERK8rationalj(ptr noundef nonnull align 8 dereferenceable(24) %33, ptr noundef nonnull align 8 dereferenceable(32) %4, i32 noundef %31)
          to label %35 unwind label %28

35:                                               ; preds = %32
  %36 = getelementptr inbounds nuw i8, ptr %1, i64 72
  %37 = load ptr, ptr %36, align 8, !tbaa !98
  store ptr %34, ptr %0, align 8, !tbaa !103
  %38 = getelementptr inbounds nuw i8, ptr %0, i64 8
  store ptr %37, ptr %38, align 8, !tbaa !99
  %.not.i.i5 = icmp eq ptr %34, null
  br i1 %.not.i.i5, label %_ZN7obj_refI4expr11ast_managerEC2EPS0_RS1_.exit, label %_ZN11ast_manager7inc_refEP3ast.exit.i.i

_ZN11ast_manager7inc_refEP3ast.exit.i.i:          ; preds = %35
  %39 = getelementptr inbounds nuw i8, ptr %34, i64 8
  %40 = load i32, ptr %39, align 4, !tbaa !160
  %41 = add i32 %40, 1
  store i32 %41, ptr %39, align 4, !tbaa !160
  br label %_ZN7obj_refI4expr11ast_managerEC2EPS0_RS1_.exit

_ZN7obj_refI4expr11ast_managerEC2EPS0_RS1_.exit:  ; preds = %_ZN11ast_manager7inc_refEP3ast.exit.i.i, %35
  %42 = load ptr, ptr @_ZN8rational13g_mpq_managerE, align 8, !tbaa !193
  invoke void @_ZN11mpz_managerILb1EE3delEPS0_R3mpz(ptr noundef %42, ptr noundef nonnull align 8 dereferenceable(32) %4)
          to label %.noexc.i unwind label %43

.noexc.i:                                         ; preds = %_ZN7obj_refI4expr11ast_managerEC2EPS0_RS1_.exit
  invoke void @_ZN11mpz_managerILb1EE3delEPS0_R3mpz(ptr noundef %42, ptr noundef nonnull align 8 dereferenceable(16) %7)
          to label %_ZN8rationalD2Ev.exit unwind label %43

43:                                               ; preds = %.noexc.i, %_ZN7obj_refI4expr11ast_managerEC2EPS0_RS1_.exit
  %44 = landingpad { ptr, i32 }
          catch ptr null
  %45 = extractvalue { ptr, i32 } %44, 0
  call void @__clang_call_terminate(ptr %45) #21
  unreachable

_ZN8rationalD2Ev.exit:                            ; preds = %.noexc.i
  call void @llvm.lifetime.end.p0(i64 32, ptr nonnull %4) #20
  ret void
}